target datalayout = "e-m:e-p270:32:32-p271:32:32-p272:64:64-i64:64-i128:128-f80:128-n8:16:32:64-S128"
target triple = "x86_64-pc-linux-gnu"

%struct._php_stream_xport_param = type { i32, i8, %struct.anon.8, %struct.anon.9 }
%struct.anon.8 = type { ptr, i64, ptr, ptr, ptr, i64, i32, i32, i32 }
%struct.anon.9 = type { ptr, ptr, i32, ptr, ptr, i32, i32 }

; Function Attrs: nounwind uwtable
define i32 @php_stream_xport_recvfrom(ptr noundef %0, ptr noundef %1, i64 noundef %2, i32 noundef %3, ptr noundef %4, ptr noundef %5, ptr noundef %6) #0 {
  %8 = alloca i32, align 4
  %9 = alloca ptr, align 8
  %10 = alloca ptr, align 8
  %11 = alloca i64, align 8
  %12 = alloca i32, align 4
  %13 = alloca ptr, align 8
  %14 = alloca ptr, align 8
  %15 = alloca ptr, align 8
  %16 = alloca %struct._php_stream_xport_param, align 8
  %17 = alloca i32, align 4
  %18 = alloca i32, align 4
  store ptr %0, ptr %9, align 8
  store ptr %1, ptr %10, align 8
  store i64 %2, ptr %11, align 8
  store i32 %3, ptr %12, align 4
  store ptr %4, ptr %13, align 8
  store ptr %5, ptr %14, align 8
  store ptr %6, ptr %15, align 8
  store i32 0, ptr %17, align 4
  store i32 0, ptr %18, align 4
  call void @llvm.memset.p0.i64(ptr align 8 %16, i8 0, i64 120, i1 false)
  %19 = getelementptr inbounds %struct._php_stream_xport_param, ptr %16, i32 0, i32 0
  store i32 7, ptr %19, align 8
  %20 = load ptr, ptr %13, align 8
  %21 = icmp ne ptr %20, null
  %22 = select i1 %21, i32 1, i32 0
  %23 = getelementptr inbounds %struct._php_stream_xport_param, ptr %16, i32 0, i32 1
  %24 = trunc i32 %22 to i8
  %25 = load i8, ptr %23, align 4
  %26 = and i8 %24, 1
  %27 = and i8 %25, -2
  %28 = or i8 %27, %26
  store i8 %28, ptr %23, align 4
  %29 = load ptr, ptr %15, align 8
  %30 = icmp ne ptr %29, null
  %31 = select i1 %30, i32 1, i32 0
  %32 = getelementptr inbounds %struct._php_stream_xport_param, ptr %16, i32 0, i32 1
  %33 = trunc i32 %31 to i8
  %34 = load i8, ptr %32, align 4
  %35 = and i8 %33, 1
  %36 = shl i8 %35, 1
  %37 = and i8 %34, -3
  %38 = or i8 %37, %36
  store i8 %38, ptr %32, align 4
  %39 = load ptr, ptr %10, align 8
  %40 = getelementptr inbounds %struct._php_stream_xport_param, ptr %16, i32 0, i32 2
  %41 = getelementptr inbounds %struct.anon.8, ptr %40, i32 0, i32 4
  store ptr %39, ptr %41, align 8
  %42 = load i64, ptr %11, align 8
  %43 = getelementptr inbounds %struct._php_stream_xport_param, ptr %16, i32 0, i32 2
  %44 = getelementptr inbounds %struct.anon.8, ptr %43, i32 0, i32 5
  store i64 %42, ptr %44, align 8
  %45 = load i32, ptr %12, align 4
  %46 = getelementptr inbounds %struct._php_stream_xport_param, ptr %16, i32 0, i32 2
  %47 = getelementptr inbounds %struct.anon.8, ptr %46, i32 0, i32 8
  store i32 %45, ptr %47, align 8
  %48 = load ptr, ptr %9, align 8
  %49 = call i32 @_php_stream_set_option(ptr noundef %48, i32 noundef 7, i32 noundef 0, ptr noundef %16)
  store i32 %49, ptr %17, align 4
  %50 = load i32, ptr %17, align 4
  %51 = icmp eq i32 %50, 0
  br i1 %51, label %52, label %78

52:                                               ; preds = %7
  %53 = load ptr, ptr %13, align 8
  %54 = icmp ne ptr %53, null
  br i1 %54, label %55, label %64

55:                                               ; preds = %52
  %56 = getelementptr inbounds %struct._php_stream_xport_param, ptr %16, i32 0, i32 3
  %57 = getelementptr inbounds %struct.anon.9, ptr %56, i32 0, i32 1
  %58 = load ptr, ptr %57, align 8
  %59 = load ptr, ptr %13, align 8
  store ptr %58, ptr %59, align 8
  %60 = getelementptr inbounds %struct._php_stream_xport_param, ptr %16, i32 0, i32 3
  %61 = getelementptr inbounds %struct.anon.9, ptr %60, i32 0, i32 2
  %62 = load i32, ptr %61, align 8
  %63 = load ptr, ptr %14, align 8
  store i32 %62, ptr %63, align 4
  br label %64

64:                                               ; preds = %55, %52
  %65 = load ptr, ptr %15, align 8
  %66 = icmp ne ptr %65, null
  br i1 %66, label %67, label %72

67:                                               ; preds = %64
  %68 = getelementptr inbounds %struct._php_stream_xport_param, ptr %16, i32 0, i32 3
  %69 = getelementptr inbounds %struct.anon.9, ptr %68, i32 0, i32 3
  %70 = load ptr, ptr %69, align 8
  %71 = load ptr, ptr %15, align 8
  store ptr %70, ptr %71, align 8
  br label %72

72:                                               ; preds = %67, %64
  %73 = load i32, ptr %18, align 4
  %74 = getelementptr inbounds %struct._php_stream_xport_param, ptr %16, i32 0, i32 3
  %75 = getelementptr inbounds %struct.anon.9, ptr %74, i32 0, i32 5
  %76 = load i32, ptr %75, align 8
  %77 = add nsw i32 %73, %76
  store i32 %77, ptr %8, align 4
  br label %86

78:                                               ; preds = %7
  %79 = load i32, ptr %18, align 4
  %80 = icmp ne i32 %79, 0
  br i1 %80, label %81, label %83

81:                                               ; preds = %78
  %82 = load i32, ptr %18, align 4
  br label %84

83:                                               ; preds = %78
  br label %84

84:                                               ; preds = %83, %81
  %85 = phi i32 [ %82, %81 ], [ -1, %83 ]
  store i32 %85, ptr %8, align 4
  br label %86

86:                                               ; preds = %84, %72
  %87 = load i32, ptr %8, align 4
  ret i32 %87
}