; Function Attrs: nounwind uwtable
define i32 @php_stream_xport_recvfrom(ptr noundef %0, ptr noundef %1, i64 noundef %2, i32 noundef %3, ptr noundef writeonly %4, ptr nocapture noundef writeonly %5, ptr noundef writeonly %6) local_unnamed_addr #1 {
  %8 = alloca %struct._php_stream_xport_param, align 8
  call void @llvm.memset.p0.i64(ptr noundef nonnull align 8 dereferenceable(120) %8, i8 0, i64 120, i1 false)
  store i32 7, ptr %8, align 8
  %.not = icmp ne ptr %4, null
  %9 = getelementptr inbounds i8, ptr %8, i64 4
  %10 = zext i1 %.not to i8
  %.not17.not = icmp eq ptr %6, null
  %11 = select i1 %.not17.not, i8 0, i8 2
  %12 = or disjoint i8 %11, %10
  store i8 %12, ptr %9, align 4
  %13 = getelementptr inbounds i8, ptr %8, i64 40
  store ptr %1, ptr %13, align 8
  %14 = getelementptr inbounds i8, ptr %8, i64 48
  store i64 %2, ptr %14, align 8
  %15 = getelementptr inbounds i8, ptr %8, i64 64
  store i32 %3, ptr %15, align 8
  %16 = call i32 @_php_stream_set_option(ptr noundef %0, i32 noundef 7, i32 noundef 0, ptr noundef nonnull %8) #14
  %17 = icmp eq i32 %16, 0
  br i1 %17, label %18, label %31

18:                                               ; preds = %7
  br i1 %.not, label %19, label %24

19:                                               ; preds = %18
  %20 = getelementptr inbounds i8, ptr %8, i64 80
  %21 = load ptr, ptr %20, align 8
  store ptr %21, ptr %4, align 8
  %22 = getelementptr inbounds i8, ptr %8, i64 88
  %23 = load i32, ptr %22, align 8
  store i32 %23, ptr %5, align 4
  br label %24

24:                                               ; preds = %19, %18
  br i1 %.not17.not, label %28, label %25

25:                                               ; preds = %24
  %26 = getelementptr inbounds i8, ptr %8, i64 96
  %27 = load ptr, ptr %26, align 8
  store ptr %27, ptr %6, align 8
  br label %28

28:                                               ; preds = %25, %24
  %29 = getelementptr inbounds i8, ptr %8, i64 112
  %30 = load i32, ptr %29, align 8
  br label %31

31:                                               ; preds = %7, %28
  %.0 = phi i32 [ %30, %28 ], [ -1, %7 ]
  ret i32 %.0
}